target datalayout = "e-m:e-p270:32:32-p271:32:32-p272:64:64-i64:64-i128:128-f80:128-n8:16:32:64-S128"
target triple = "x86_64-pc-linux-gnu"

%"struct.opencv_test::ConvParamGenerator" = type <{ ptr, i32, [4 x i8] }>
%"class.testing::internal::ParamGenerator" = type { %"class.testing::internal::linked_ptr" }
%"class.testing::internal::linked_ptr" = type { ptr, %"class.testing::internal::linked_ptr_internal" }
%"class.testing::internal::linked_ptr_internal" = type { ptr }
%"class.testing::internal::CartesianProductHolder2" = type { %"class.testing::internal::ParamGenerator.90", %"class.testing::internal::ParamGenerator.92" }
%"class.testing::internal::ParamGenerator.90" = type { %"class.testing::internal::linked_ptr.91" }
%"class.testing::internal::linked_ptr.91" = type { ptr, %"class.testing::internal::linked_ptr_internal" }
%"class.testing::internal::ParamGenerator.92" = type { %"class.testing::internal::linked_ptr.93" }
%"class.testing::internal::linked_ptr.93" = type { ptr, %"class.testing::internal::linked_ptr_internal" }

@_ZN11opencv_test15conv_1x1_paramsE = hidden global %"struct.opencv_test::ConvParamGenerator" zeroinitializer, align 8

; Function Attrs: mustprogress uwtable
define linkonce_odr hidden void @_ZN7testing7CombineINS_8internal14ParamGeneratorIN11opencv_test11ConvParam_tEEENS2_ISt5tupleIJN2cv3dnn14dnn4_v202412237BackendENS9_6TargetEEEEEEENS1_23CartesianProductHolder2IT_T0_EERKSF_RKSG_(ptr dead_on_unwind noalias writable sret(%"class.testing::internal::CartesianProductHolder2") align 8 %0, ptr noundef nonnull align 8 dereferenceable(16) %1, ptr noundef nonnull align 8 dereferenceable(16) %2) #6 comdat {
  %4 = alloca ptr, align 8
  %5 = alloca ptr, align 8
  %6 = alloca ptr, align 8
  store ptr %0, ptr %4, align 8
  store ptr %1, ptr %5, align 8, !tbaa !559
  store ptr %2, ptr %6, align 8, !tbaa !561
  %7 = load ptr, ptr %5, align 8, !tbaa !559
  %8 = load ptr, ptr %6, align 8, !tbaa !561
  call void @_ZN7testing8internal23CartesianProductHolder2INS0_14ParamGeneratorIN11opencv_test11ConvParam_tEEENS2_ISt5tupleIJN2cv3dnn14dnn4_v202412237BackendENS9_6TargetEEEEEEC2ERKS5_RKSD_(ptr noundef nonnull align 8 dereferenceable(32) %0, ptr noundef nonnull align 8 dereferenceable(16) %7, ptr noundef nonnull align 8 dereferenceable(16) %8)
  ret void
}

; Function Attrs: mustprogress uwtable
define internal void @_ZN11opencv_testL29gtest_Conv_1x1_EvalGenerator_Ev(ptr dead_on_unwind noalias writable sret(%"class.testing::internal::ParamGenerator") align 8 %0) #6 personality ptr @__gxx_personality_v0 {
  %2 = alloca ptr, align 8
  %3 = alloca %"class.testing::internal::CartesianProductHolder2", align 8
  %4 = alloca %"class.testing::internal::ParamGenerator.90", align 8
  %5 = alloca %"class.testing::internal::ParamGenerator.92", align 8
  %6 = alloca ptr, align 8
  %7 = alloca i32, align 4
  store ptr %0, ptr %2, align 8
  call void @llvm.lifetime.start.p0(i64 32, ptr %3) #3
  call void @llvm.lifetime.start.p0(i64 16, ptr %4) #3
  call void @_ZNK11opencv_test18ConvParamGenerator3allEv(ptr dead_on_unwind writable sret(%"class.testing::internal::ParamGenerator.90") align 8 %4, ptr noundef nonnull align 8 dereferenceable(12) @_ZN11opencv_test15conv_1x1_paramsE)
  call void @llvm.lifetime.start.p0(i64 16, ptr %5) #3
  invoke void @_ZN11opencv_test21dnnBackendsAndTargetsEbbbbbbbb(ptr dead_on_unwind writable sret(%"class.testing::internal::ParamGenerator.92") align 8 %5, i1 noundef zeroext false, i1 noundef zeroext false, i1 noundef zeroext true, i1 noundef zeroext true, i1 noundef zeroext true, i1 noundef zeroext true, i1 noundef zeroext true, i1 noundef zeroext true)
          to label %8 unwind label %11

8:                                                ; preds = %1
  invoke void @_ZN7testing7CombineINS_8internal14ParamGeneratorIN11opencv_test11ConvParam_tEEENS2_ISt5tupleIJN2cv3dnn14dnn4_v202412237BackendENS9_6TargetEEEEEEENS1_23CartesianProductHolder2IT_T0_EERKSF_RKSG_(ptr dead_on_unwind writable sret(%"class.testing::internal::CartesianProductHolder2") align 8 %3, ptr noundef nonnull align 8 dereferenceable(16) %4, ptr noundef nonnull align 8 dereferenceable(16) %5)
          to label %9 unwind label %15

9:                                                ; preds = %8
  invoke void @_ZNK7testing8internal23CartesianProductHolder2INS0_14ParamGeneratorIN11opencv_test11ConvParam_tEEENS2_ISt5tupleIJN2cv3dnn14dnn4_v202412237BackendENS9_6TargetEEEEEEcvNS2_IS6_IJT_T0_EEEEIS4_SC_EEv(ptr dead_on_unwind writable sret(%"class.testing::internal::ParamGenerator") align 8 %0, ptr noundef nonnull align 8 dereferenceable(32) %3)
          to label %10 unwind label %19

10:                                               ; preds = %9
  call void @_ZN7testing8internal23CartesianProductHolder2INS0_14ParamGeneratorIN11opencv_test11ConvParam_tEEENS2_ISt5tupleIJN2cv3dnn14dnn4_v202412237BackendENS9_6TargetEEEEEED2Ev(ptr noundef nonnull align 8 dereferenceable(32) %3) #3
  call void @_ZN7testing8internal14ParamGeneratorISt5tupleIJN2cv3dnn14dnn4_v202412237BackendENS5_6TargetEEEED2Ev(ptr noundef nonnull align 8 dereferenceable(16) %5) #3
  call void @llvm.lifetime.end.p0(i64 16, ptr %5) #3
  call void @_ZN7testing8internal14ParamGeneratorIN11opencv_test11ConvParam_tEED2Ev(ptr noundef nonnull align 8 dereferenceable(16) %4) #3
  call void @llvm.lifetime.end.p0(i64 16, ptr %4) #3
  call void @llvm.lifetime.end.p0(i64 32, ptr %3) #3
  ret void

11:                                               ; preds = %1
  %12 = landingpad { ptr, i32 }
          cleanup
  %13 = extractvalue { ptr, i32 } %12, 0
  store ptr %13, ptr %6, align 8
  %14 = extractvalue { ptr, i32 } %12, 1
  store i32 %14, ptr %7, align 4
  br label %24

15:                                               ; preds = %8
  %16 = landingpad { ptr, i32 }
          cleanup
  %17 = extractvalue { ptr, i32 } %16, 0
  store ptr %17, ptr %6, align 8
  %18 = extractvalue { ptr, i32 } %16, 1
  store i32 %18, ptr %7, align 4
  br label %23

19:                                               ; preds = %9
  %20 = landingpad { ptr, i32 }
          cleanup
  %21 = extractvalue { ptr, i32 } %20, 0
  store ptr %21, ptr %6, align 8
  %22 = extractvalue { ptr, i32 } %20, 1
  store i32 %22, ptr %7, align 4
  call void @_ZN7testing8internal23CartesianProductHolder2INS0_14ParamGeneratorIN11opencv_test11ConvParam_tEEENS2_ISt5tupleIJN2cv3dnn14dnn4_v202412237BackendENS9_6TargetEEEEEED2Ev(ptr noundef nonnull align 8 dereferenceable(32) %3) #3
  br label %23

23:                                               ; preds = %19, %15
  call void @_ZN7testing8internal14ParamGeneratorISt5tupleIJN2cv3dnn14dnn4_v202412237BackendENS5_6TargetEEEED2Ev(ptr noundef nonnull align 8 dereferenceable(16) %5) #3
  br label %24

24:                                               ; preds = %23, %11
  call void @llvm.lifetime.end.p0(i64 16, ptr %5) #3
  call void @_ZN7testing8internal14ParamGeneratorIN11opencv_test11ConvParam_tEED2Ev(ptr noundef nonnull align 8 dereferenceable(16) %4) #3
  call void @llvm.lifetime.end.p0(i64 16, ptr %4) #3
  call void @llvm.lifetime.end.p0(i64 32, ptr %3) #3
  br label %25

25:                                               ; preds = %24
  %26 = load ptr, ptr %6, align 8
  %27 = load i32, ptr %7, align 4
  %28 = insertvalue { ptr, i32 } poison, ptr %26, 0
  %29 = insertvalue { ptr, i32 } %28, i32 %27, 1
  resume { ptr, i32 } %29
}