; Function Attrs: mustprogress uwtable
define internal void @_ZN11opencv_testL29gtest_Conv_1x1_EvalGenerator_Ev(ptr dead_on_unwind noalias writable sret(%"class.testing::internal::ParamGenerator") align 8 %0) #4 personality ptr @__gxx_personality_v0 {
  %2 = alloca %"class.testing::internal::CartesianProductHolder2", align 8
  %3 = alloca %"class.testing::internal::ParamGenerator.90", align 8
  %4 = alloca %"class.testing::internal::ParamGenerator.92", align 8
  call void @llvm.lifetime.start.p0(i64 32, ptr nonnull %2) #28
  call void @llvm.lifetime.start.p0(i64 16, ptr nonnull %3) #28
  call void @_ZNK11opencv_test18ConvParamGenerator3allEv(ptr dead_on_unwind nonnull writable sret(%"class.testing::internal::ParamGenerator.90") align 8 %3, ptr noundef nonnull align 8 dereferenceable(12) @_ZN11opencv_test15conv_1x1_paramsE)
  call void @llvm.lifetime.start.p0(i64 16, ptr nonnull %4) #28
  invoke void @_ZN11opencv_test21dnnBackendsAndTargetsEbbbbbbbb(ptr dead_on_unwind nonnull writable sret(%"class.testing::internal::ParamGenerator.92") align 8 %4, i1 noundef zeroext false, i1 noundef zeroext false, i1 noundef zeroext true, i1 noundef zeroext true, i1 noundef zeroext true, i1 noundef zeroext true, i1 noundef zeroext true, i1 noundef zeroext true)
          to label %5 unwind label %45

5:                                                ; preds = %1
  invoke void @_ZN7testing8internal23CartesianProductHolder2INS0_14ParamGeneratorIN11opencv_test11ConvParam_tEEENS2_ISt5tupleIJN2cv3dnn14dnn4_v202412237BackendENS9_6TargetEEEEEEC2ERKS5_RKSD_(ptr noundef nonnull align 8 dereferenceable(32) %2, ptr noundef nonnull align 8 dereferenceable(16) %3, ptr noundef nonnull align 8 dereferenceable(16) %4)
          to label %_ZN7testing7CombineINS_8internal14ParamGeneratorIN11opencv_test11ConvParam_tEEENS2_ISt5tupleIJN2cv3dnn14dnn4_v202412237BackendENS9_6TargetEEEEEEENS1_23CartesianProductHolder2IT_T0_EERKSF_RKSG_.exit unwind label %47

_ZN7testing7CombineINS_8internal14ParamGeneratorIN11opencv_test11ConvParam_tEEENS2_ISt5tupleIJN2cv3dnn14dnn4_v202412237BackendENS9_6TargetEEEEEEENS1_23CartesianProductHolder2IT_T0_EERKSF_RKSG_.exit: ; preds = %5
  invoke void @_ZNK7testing8internal23CartesianProductHolder2INS0_14ParamGeneratorIN11opencv_test11ConvParam_tEEENS2_ISt5tupleIJN2cv3dnn14dnn4_v202412237BackendENS9_6TargetEEEEEEcvNS2_IS6_IJT_T0_EEEEIS4_SC_EEv(ptr dead_on_unwind writable sret(%"class.testing::internal::ParamGenerator") align 8 %0, ptr noundef nonnull align 8 dereferenceable(32) %2)
          to label %6 unwind label %49

6:                                                ; preds = %_ZN7testing7CombineINS_8internal14ParamGeneratorIN11opencv_test11ConvParam_tEEENS2_ISt5tupleIJN2cv3dnn14dnn4_v202412237BackendENS9_6TargetEEEEEEENS1_23CartesianProductHolder2IT_T0_EERKSF_RKSG_.exit
  call void @_ZN7testing8internal23CartesianProductHolder2INS0_14ParamGeneratorIN11opencv_test11ConvParam_tEEENS2_ISt5tupleIJN2cv3dnn14dnn4_v202412237BackendENS9_6TargetEEEEEED2Ev(ptr noundef nonnull align 8 dereferenceable(32) %2) #28
  %7 = getelementptr inbounds nuw i8, ptr %4, i64 8
  invoke void @_ZN7testing8internal9MutexBase4LockEv(ptr noundef nonnull align 8 dereferenceable(56) @_ZN7testing8internal18g_linked_ptr_mutexE)
          to label %.noexc.i.i unwind label %23

.noexc.i.i:                                       ; preds = %6
  %8 = load ptr, ptr %7, align 8, !tbaa !177
  %9 = icmp eq ptr %8, %7
  br i1 %9, label %12, label %.preheader.i.i.i.i

.preheader.i.i.i.i:                               ; preds = %.noexc.i.i, %.preheader.i.i.i.i
  %.0.i.i.i.i = phi ptr [ %10, %.preheader.i.i.i.i ], [ %8, %.noexc.i.i ]
  %10 = load ptr, ptr %.0.i.i.i.i, align 8, !tbaa !177
  %.not.i.i.i.i = icmp eq ptr %10, %7
  br i1 %.not.i.i.i.i, label %11, label %.preheader.i.i.i.i, !llvm.loop !180

11:                                               ; preds = %.preheader.i.i.i.i
  store ptr %8, ptr %.0.i.i.i.i, align 8, !tbaa !177
  br label %12

12:                                               ; preds = %11, %.noexc.i.i
  invoke void @_ZN7testing8internal9MutexBase6UnlockEv(ptr noundef nonnull align 8 dereferenceable(56) @_ZN7testing8internal18g_linked_ptr_mutexE)
          to label %_ZN7testing8internal19linked_ptr_internal6departEv.exit.i.i.i unwind label %13

13:                                               ; preds = %12
  %14 = landingpad { ptr, i32 }
          catch ptr null
  %15 = extractvalue { ptr, i32 } %14, 0
  call void @__clang_call_terminate(ptr %15) #31
  unreachable

_ZN7testing8internal19linked_ptr_internal6departEv.exit.i.i.i: ; preds = %12
  br i1 %9, label %16, label %_ZN7testing8internal14ParamGeneratorISt5tupleIJN2cv3dnn14dnn4_v202412237BackendENS5_6TargetEEEED2Ev.exit

16:                                               ; preds = %_ZN7testing8internal19linked_ptr_internal6departEv.exit.i.i.i
  %17 = load ptr, ptr %4, align 8, !tbaa !181
  %18 = icmp eq ptr %17, null
  br i1 %18, label %_ZN7testing8internal14ParamGeneratorISt5tupleIJN2cv3dnn14dnn4_v202412237BackendENS5_6TargetEEEED2Ev.exit, label %19

19:                                               ; preds = %16
  %20 = load ptr, ptr %17, align 8, !tbaa !19
  %21 = getelementptr inbounds nuw i8, ptr %20, i64 8
  %22 = load ptr, ptr %21, align 8
  call void %22(ptr noundef nonnull align 8 dereferenceable(8) %17) #28
  br label %_ZN7testing8internal14ParamGeneratorISt5tupleIJN2cv3dnn14dnn4_v202412237BackendENS5_6TargetEEEED2Ev.exit

23:                                               ; preds = %6
  %24 = landingpad { ptr, i32 }
          catch ptr null
  %25 = extractvalue { ptr, i32 } %24, 0
  call void @__clang_call_terminate(ptr %25) #31
  unreachable

_ZN7testing8internal14ParamGeneratorISt5tupleIJN2cv3dnn14dnn4_v202412237BackendENS5_6TargetEEEED2Ev.exit: ; preds = %_ZN7testing8internal19linked_ptr_internal6departEv.exit.i.i.i, %16, %19
  call void @llvm.lifetime.end.p0(i64 16, ptr nonnull %4) #28
  %26 = getelementptr inbounds nuw i8, ptr %3, i64 8
  invoke void @_ZN7testing8internal9MutexBase4LockEv(ptr noundef nonnull align 8 dereferenceable(56) @_ZN7testing8internal18g_linked_ptr_mutexE)
          to label %.noexc.i.i5 unwind label %42

.noexc.i.i5:                                      ; preds = %_ZN7testing8internal14ParamGeneratorISt5tupleIJN2cv3dnn14dnn4_v202412237BackendENS5_6TargetEEEED2Ev.exit
  %27 = load ptr, ptr %26, align 8, !tbaa !177
  %28 = icmp eq ptr %27, %26
  br i1 %28, label %31, label %.preheader.i.i.i.i6

.preheader.i.i.i.i6:                              ; preds = %.noexc.i.i5, %.preheader.i.i.i.i6
  %.0.i.i.i.i7 = phi ptr [ %29, %.preheader.i.i.i.i6 ], [ %27, %.noexc.i.i5 ]
  %29 = load ptr, ptr %.0.i.i.i.i7, align 8, !tbaa !177
  %.not.i.i.i.i8 = icmp eq ptr %29, %26
  br i1 %.not.i.i.i.i8, label %30, label %.preheader.i.i.i.i6, !llvm.loop !180

30:                                               ; preds = %.preheader.i.i.i.i6
  store ptr %27, ptr %.0.i.i.i.i7, align 8, !tbaa !177
  br label %31

31:                                               ; preds = %30, %.noexc.i.i5
  invoke void @_ZN7testing8internal9MutexBase6UnlockEv(ptr noundef nonnull align 8 dereferenceable(56) @_ZN7testing8internal18g_linked_ptr_mutexE)
          to label %_ZN7testing8internal19linked_ptr_internal6departEv.exit.i.i.i9 unwind label %32

32:                                               ; preds = %31
  %33 = landingpad { ptr, i32 }
          catch ptr null
  %34 = extractvalue { ptr, i32 } %33, 0
  call void @__clang_call_terminate(ptr %34) #31
  unreachable

_ZN7testing8internal19linked_ptr_internal6departEv.exit.i.i.i9: ; preds = %31
  br i1 %28, label %35, label %_ZN7testing8internal14ParamGeneratorIN11opencv_test11ConvParam_tEED2Ev.exit

35:                                               ; preds = %_ZN7testing8internal19linked_ptr_internal6departEv.exit.i.i.i9
  %36 = load ptr, ptr %3, align 8, !tbaa !184
  %37 = icmp eq ptr %36, null
  br i1 %37, label %_ZN7testing8internal14ParamGeneratorIN11opencv_test11ConvParam_tEED2Ev.exit, label %38

38:                                               ; preds = %35
  %39 = load ptr, ptr %36, align 8, !tbaa !19
  %40 = getelementptr inbounds nuw i8, ptr %39, i64 8
  %41 = load ptr, ptr %40, align 8
  call void %41(ptr noundef nonnull align 8 dereferenceable(8) %36) #28
  br label %_ZN7testing8internal14ParamGeneratorIN11opencv_test11ConvParam_tEED2Ev.exit

42:                                               ; preds = %_ZN7testing8internal14ParamGeneratorISt5tupleIJN2cv3dnn14dnn4_v202412237BackendENS5_6TargetEEEED2Ev.exit
  %43 = landingpad { ptr, i32 }
          catch ptr null
  %44 = extractvalue { ptr, i32 } %43, 0
  call void @__clang_call_terminate(ptr %44) #31
  unreachable

_ZN7testing8internal14ParamGeneratorIN11opencv_test11ConvParam_tEED2Ev.exit: ; preds = %_ZN7testing8internal19linked_ptr_internal6departEv.exit.i.i.i9, %35, %38
  call void @llvm.lifetime.end.p0(i64 16, ptr nonnull %3) #28
  call void @llvm.lifetime.end.p0(i64 32, ptr nonnull %2) #28
  ret void

45:                                               ; preds = %1
  %46 = landingpad { ptr, i32 }
          cleanup
  br label %52

47:                                               ; preds = %5
  %48 = landingpad { ptr, i32 }
          cleanup
  br label %51

49:                                               ; preds = %_ZN7testing7CombineINS_8internal14ParamGeneratorIN11opencv_test11ConvParam_tEEENS2_ISt5tupleIJN2cv3dnn14dnn4_v202412237BackendENS9_6TargetEEEEEEENS1_23CartesianProductHolder2IT_T0_EERKSF_RKSG_.exit
  %50 = landingpad { ptr, i32 }
          cleanup
  call void @_ZN7testing8internal23CartesianProductHolder2INS0_14ParamGeneratorIN11opencv_test11ConvParam_tEEENS2_ISt5tupleIJN2cv3dnn14dnn4_v202412237BackendENS9_6TargetEEEEEED2Ev(ptr noundef nonnull align 8 dereferenceable(32) %2) #28
  br label %51

51:                                               ; preds = %49, %47
  %.pn = phi { ptr, i32 } [ %50, %49 ], [ %48, %47 ]
  call void @_ZN7testing8internal14ParamGeneratorISt5tupleIJN2cv3dnn14dnn4_v202412237BackendENS5_6TargetEEEED2Ev(ptr noundef nonnull align 8 dereferenceable(16) %4) #28
  br label %52

52:                                               ; preds = %51, %45
  %.pn.pn = phi { ptr, i32 } [ %.pn, %51 ], [ %46, %45 ]
  call void @llvm.lifetime.end.p0(i64 16, ptr nonnull %4) #28
  call void @_ZN7testing8internal14ParamGeneratorIN11opencv_test11ConvParam_tEED2Ev(ptr noundef nonnull align 8 dereferenceable(16) %3) #28
  call void @llvm.lifetime.end.p0(i64 16, ptr nonnull %3) #28
  call void @llvm.lifetime.end.p0(i64 32, ptr nonnull %2) #28
  resume { ptr, i32 } %.pn.pn
}